; ModuleID = 'source-C-CXX/26/1861.c'
source_filename = "source-C-CXX/26/1861.c"
target datalayout = "e-m:e-p270:32:32-p271:32:32-p272:64:64-i64:64-f80:128-n8:16:32:64-S128"
target triple = "x86_64-pc-linux-gnu"

@.str = private unnamed_addr constant [4 x i8] c"%d\0A\00", align 1
@.str.1 = private unnamed_addr constant [7 x i8] c"%f%f%f\00", align 1
@.str.2 = private unnamed_addr constant [17 x i8] c"x1=%.5f;x2=%.5f\0A\00", align 1
@.str.3 = private unnamed_addr constant [12 x i8] c"x1=x2=%.5f\0A\00", align 1
@.str.4 = private unnamed_addr constant [29 x i8] c"x1=%.5f+%.5fi;x2=%.5f-%.5fi\0A\00", align 1

; Function Attrs: nofree nounwind sspstrong uwtable
define dso_local i32 @main(i32 %0, i8** nocapture readnone %1) local_unnamed_addr #0 {
  %3 = alloca i32, align 4
  %4 = alloca float, align 4
  %5 = alloca float, align 4
  %6 = alloca float, align 4
  %7 = bitcast i32* %3 to i8*
  call void @llvm.lifetime.start.p0i8(i64 4, i8* nonnull %7) #4
  %8 = call i32 (i8*, ...) @__isoc99_scanf(i8* getelementptr inbounds ([4 x i8], [4 x i8]* @.str, i64 0, i64 0), i32* nonnull %3)
  %9 = bitcast float* %4 to i8*
  %10 = bitcast float* %5 to i8*
  %11 = bitcast float* %6 to i8*
  %12 = load i32, i32* %3, align 4, !tbaa !5
  %13 = icmp slt i32 %12, 1
  br i1 %13, label %74, label %14

14:                                               ; preds = %2, %70
  %15 = phi i32 [ %71, %70 ], [ 1, %2 ]
  call void @llvm.lifetime.start.p0i8(i64 4, i8* nonnull %9) #4
  call void @llvm.lifetime.start.p0i8(i64 4, i8* nonnull %10) #4
  call void @llvm.lifetime.start.p0i8(i64 4, i8* nonnull %11) #4
  %16 = call i32 (i8*, ...) @__isoc99_scanf(i8* getelementptr inbounds ([7 x i8], [7 x i8]* @.str.1, i64 0, i64 0), float* nonnull %4, float* nonnull %5, float* nonnull %6)
  %17 = load float, float* %5, align 4, !tbaa !9
  %18 = fmul float %17, %17
  %19 = load float, float* %4, align 4, !tbaa !9
  %20 = fmul float %19, 4.000000e+00
  %21 = load float, float* %6, align 4, !tbaa !9
  %22 = fmul float %20, %21
  %23 = fsub float %18, %22
  %24 = fcmp ogt float %23, 0.000000e+00
  br i1 %24, label %25, label %51

25:                                               ; preds = %14
  %26 = fneg float %17
  %27 = fpext float %26 to double
  %28 = fpext float %23 to double
  %29 = call double @sqrt(double %28) #4
  %30 = fadd double %29, %27
  %31 = load float, float* %4, align 4, !tbaa !9
  %32 = fmul float %31, 2.000000e+00
  %33 = fpext float %32 to double
  %34 = fdiv double %30, %33
  %35 = load float, float* %5, align 4, !tbaa !9
  %36 = fneg float %35
  %37 = fpext float %36 to double
  %38 = fmul float %35, %35
  %39 = fmul float %31, 4.000000e+00
  %40 = load float, float* %6, align 4, !tbaa !9
  %41 = fmul float %39, %40
  %42 = fsub float %38, %41
  %43 = fpext float %42 to double
  %44 = call double @sqrt(double %43) #4
  %45 = fsub double %37, %44
  %46 = load float, float* %4, align 4, !tbaa !9
  %47 = fmul float %46, 2.000000e+00
  %48 = fpext float %47 to double
  %49 = fdiv double %45, %48
  %50 = call i32 (i8*, ...) @printf(i8* nonnull dereferenceable(1) getelementptr inbounds ([17 x i8], [17 x i8]* @.str.2, i64 0, i64 0), double %34, double %49)
  br label %70

51:                                               ; preds = %14
  %52 = fcmp oeq float %23, 0.000000e+00
  %53 = fneg float %17
  %54 = fmul float %19, 2.000000e+00
  %55 = fdiv float %53, %54
  %56 = fpext float %55 to double
  br i1 %52, label %57, label %59

57:                                               ; preds = %51
  %58 = call i32 (i8*, ...) @printf(i8* nonnull dereferenceable(1) getelementptr inbounds ([12 x i8], [12 x i8]* @.str.3, i64 0, i64 0), double %56, double %56)
  br label %70

59:                                               ; preds = %51
  %60 = fcmp oeq float %17, 0.000000e+00
  %61 = select i1 %60, double 0.000000e+00, double %56
  %62 = fsub float %22, %18
  %63 = fpext float %62 to double
  %64 = call double @sqrt(double %63) #4
  %65 = load float, float* %4, align 4, !tbaa !9
  %66 = fmul float %65, 2.000000e+00
  %67 = fpext float %66 to double
  %68 = fdiv double %64, %67
  %69 = call i32 (i8*, ...) @printf(i8* nonnull dereferenceable(1) getelementptr inbounds ([29 x i8], [29 x i8]* @.str.4, i64 0, i64 0), double %61, double %68, double %61, double %68)
  br label %70

70:                                               ; preds = %57, %59, %25
  call void @llvm.lifetime.end.p0i8(i64 4, i8* nonnull %11) #4
  call void @llvm.lifetime.end.p0i8(i64 4, i8* nonnull %10) #4
  call void @llvm.lifetime.end.p0i8(i64 4, i8* nonnull %9) #4
  %71 = add nuw nsw i32 %15, 1
  %72 = load i32, i32* %3, align 4, !tbaa !5
  %73 = icmp slt i32 %15, %72
  br i1 %73, label %14, label %74, !llvm.loop !11

74:                                               ; preds = %70, %2
  call void @llvm.lifetime.end.p0i8(i64 4, i8* nonnull %7) #4
  ret i32 0
}

; Function Attrs: argmemonly mustprogress nofree nosync nounwind willreturn
declare void @llvm.lifetime.start.p0i8(i64 immarg, i8* nocapture) #1

; Function Attrs: nofree nounwind
declare noundef i32 @__isoc99_scanf(i8* nocapture noundef readonly, ...) local_unnamed_addr #2

; Function Attrs: mustprogress nofree nounwind willreturn
declare double @sqrt(double) local_unnamed_addr #3

; Function Attrs: nofree nounwind
declare noundef i32 @printf(i8* nocapture noundef readonly, ...) local_unnamed_addr #2

; Function Attrs: argmemonly mustprogress nofree nosync nounwind willreturn
declare void @llvm.lifetime.end.p0i8(i64 immarg, i8* nocapture) #1


!llvm.module.flags = !{!0, !1, !2, !3}
!llvm.ident = !{!4}

!0 = !{i32 1, !"wchar_size", i32 4}
!1 = !{i32 7, !"PIC Level", i32 2}
!2 = !{i32 7, !"PIE Level", i32 2}
!3 = !{i32 7, !"uwtable", i32 1}
!4 = !{!"clang version 13.0.0"}
!5 = !{!6, !6, i64 0}
!6 = !{!"int", !7, i64 0}
!7 = !{!"omnipotent char", !8, i64 0}
!8 = !{!"Simple C/C++ TBAA"}
!9 = !{!10, !10, i64 0}
!10 = !{!"float", !7, i64 0}
!11 = distinct !{!11, !12}
!12 = !{!"llvm.loop.mustprogress"}
